; Function Attrs: inlinehint mustprogress nounwind uwtable
define internal void @_ZN5arrow7compute8internal12_GLOBAL__N_116FSLSelectionImplD2Ev(ptr noundef nonnull align 8 dereferenceable(336) initializes((0, 8), (120, 128)) %0) unnamed_addr #4 align 2 personality ptr @__gxx_personality_v0 {
  store ptr getelementptr inbounds nuw inrange(-16, 32) (i8, ptr @_ZTVN5arrow7compute8internal12_GLOBAL__N_116FSLSelectionImplE, i64 16), ptr %0, align 8, !tbaa !41
  %2 = getelementptr inbounds nuw i8, ptr %0, i64 120
  store ptr getelementptr inbounds nuw inrange(-16, 112) (i8, ptr @_ZTVN5arrow14NumericBuilderINS_9Int64TypeEEE, i64 16), ptr %2, align 8, !tbaa !41
  %3 = getelementptr inbounds nuw i8, ptr %0, i64 288
  %4 = load ptr, ptr %3, align 8, !tbaa !43
  %.not.i.i.i.i.i = icmp eq ptr %4, null
  br i1 %.not.i.i.i.i.i, label %_ZN5arrow18TypedBufferBuilderIlvED2Ev.exit.i, label %5

5:                                                ; preds = %1
  %6 = getelementptr inbounds nuw i8, ptr %4, i64 8
  %7 = load atomic i64, ptr %6 acquire, align 8
  %8 = icmp eq i64 %7, 4294967297
  %9 = trunc i64 %7 to i32
  br i1 %8, label %10, label %18

10:                                               ; preds = %5
  store i32 0, ptr %6, align 8, !tbaa !38
  %11 = getelementptr inbounds nuw i8, ptr %4, i64 12
  store i32 0, ptr %11, align 4, !tbaa !40
  %12 = load ptr, ptr %4, align 8, !tbaa !41
  %13 = getelementptr inbounds nuw i8, ptr %12, i64 16
  %14 = load ptr, ptr %13, align 8
  tail call void %14(ptr noundef nonnull align 8 dereferenceable(16) %4) #25
  %15 = load ptr, ptr %4, align 8, !tbaa !41
  %16 = getelementptr inbounds nuw i8, ptr %15, i64 24
  %17 = load ptr, ptr %16, align 8
  tail call void %17(ptr noundef nonnull align 8 dereferenceable(16) %4) #25
  br label %_ZN5arrow18TypedBufferBuilderIlvED2Ev.exit.i

18:                                               ; preds = %5
  %19 = load i8, ptr @__libc_single_threaded, align 1, !tbaa !74
  %.not.i.i.i.i.i.i = icmp eq i8 %19, 0
  br i1 %.not.i.i.i.i.i.i, label %22, label %20

20:                                               ; preds = %18
  %21 = add nsw i32 %9, -1
  store i32 %21, ptr %6, align 4, !tbaa !75
  br label %_ZN9__gnu_cxx27__exchange_and_add_dispatchEPii.exit.i.i.i.i.i.i

22:                                               ; preds = %18
  %23 = atomicrmw volatile add ptr %6, i32 -1 acq_rel, align 4
  br label %_ZN9__gnu_cxx27__exchange_and_add_dispatchEPii.exit.i.i.i.i.i.i

_ZN9__gnu_cxx27__exchange_and_add_dispatchEPii.exit.i.i.i.i.i.i: ; preds = %22, %20
  %.0.i.i.i.i.i.i.i = phi i32 [ %9, %20 ], [ %23, %22 ]
  %24 = icmp eq i32 %.0.i.i.i.i.i.i.i, 1
  br i1 %24, label %25, label %_ZN5arrow18TypedBufferBuilderIlvED2Ev.exit.i, !prof !76

25:                                               ; preds = %_ZN9__gnu_cxx27__exchange_and_add_dispatchEPii.exit.i.i.i.i.i.i
  tail call void @_ZNSt16_Sp_counted_baseILN9__gnu_cxx12_Lock_policyE2EE24_M_release_last_use_coldEv(ptr noundef nonnull align 8 dereferenceable(16) %4) #25
  br label %_ZN5arrow18TypedBufferBuilderIlvED2Ev.exit.i

_ZN5arrow18TypedBufferBuilderIlvED2Ev.exit.i:     ; preds = %25, %_ZN9__gnu_cxx27__exchange_and_add_dispatchEPii.exit.i.i.i.i.i.i, %10, %1
  %26 = getelementptr inbounds nuw i8, ptr %0, i64 272
  %27 = load ptr, ptr %26, align 8, !tbaa !43
  %.not.i.i.i = icmp eq ptr %27, null
  br i1 %.not.i.i.i, label %_ZN5arrow14NumericBuilderINS_9Int64TypeEED2Ev.exit, label %28

28:                                               ; preds = %_ZN5arrow18TypedBufferBuilderIlvED2Ev.exit.i
  %29 = getelementptr inbounds nuw i8, ptr %27, i64 8
  %30 = load atomic i64, ptr %29 acquire, align 8
  %31 = icmp eq i64 %30, 4294967297
  %32 = trunc i64 %30 to i32
  br i1 %31, label %33, label %41

33:                                               ; preds = %28
  store i32 0, ptr %29, align 8, !tbaa !38
  %34 = getelementptr inbounds nuw i8, ptr %27, i64 12
  store i32 0, ptr %34, align 4, !tbaa !40
  %35 = load ptr, ptr %27, align 8, !tbaa !41
  %36 = getelementptr inbounds nuw i8, ptr %35, i64 16
  %37 = load ptr, ptr %36, align 8
  tail call void %37(ptr noundef nonnull align 8 dereferenceable(16) %27) #25
  %38 = load ptr, ptr %27, align 8, !tbaa !41
  %39 = getelementptr inbounds nuw i8, ptr %38, i64 24
  %40 = load ptr, ptr %39, align 8
  tail call void %40(ptr noundef nonnull align 8 dereferenceable(16) %27) #25
  br label %_ZN5arrow14NumericBuilderINS_9Int64TypeEED2Ev.exit

41:                                               ; preds = %28
  %42 = load i8, ptr @__libc_single_threaded, align 1, !tbaa !74
  %.not.i.i.i.i = icmp eq i8 %42, 0
  br i1 %.not.i.i.i.i, label %45, label %43

43:                                               ; preds = %41
  %44 = add nsw i32 %32, -1
  store i32 %44, ptr %29, align 4, !tbaa !75
  br label %_ZN9__gnu_cxx27__exchange_and_add_dispatchEPii.exit.i.i.i.i

45:                                               ; preds = %41
  %46 = atomicrmw volatile add ptr %29, i32 -1 acq_rel, align 4
  br label %_ZN9__gnu_cxx27__exchange_and_add_dispatchEPii.exit.i.i.i.i

_ZN9__gnu_cxx27__exchange_and_add_dispatchEPii.exit.i.i.i.i: ; preds = %45, %43
  %.0.i.i.i.i.i = phi i32 [ %32, %43 ], [ %46, %45 ]
  %47 = icmp eq i32 %.0.i.i.i.i.i, 1
  br i1 %47, label %48, label %_ZN5arrow14NumericBuilderINS_9Int64TypeEED2Ev.exit, !prof !76

48:                                               ; preds = %_ZN9__gnu_cxx27__exchange_and_add_dispatchEPii.exit.i.i.i.i
  tail call void @_ZNSt16_Sp_counted_baseILN9__gnu_cxx12_Lock_policyE2EE24_M_release_last_use_coldEv(ptr noundef nonnull align 8 dereferenceable(16) %27) #25
  br label %_ZN5arrow14NumericBuilderINS_9Int64TypeEED2Ev.exit

_ZN5arrow14NumericBuilderINS_9Int64TypeEED2Ev.exit: ; preds = %_ZN5arrow18TypedBufferBuilderIlvED2Ev.exit.i, %33, %_ZN9__gnu_cxx27__exchange_and_add_dispatchEPii.exit.i.i.i.i, %48
  tail call void @_ZN5arrow12ArrayBuilderD2Ev(ptr noundef nonnull align 8 dereferenceable(216) %2) #25
  store ptr getelementptr inbounds nuw inrange(-16, 32) (i8, ptr @_ZTVN5arrow7compute8internal12_GLOBAL__N_19SelectionINS2_16FSLSelectionImplENS_17FixedSizeListTypeEEE, i64 16), ptr %0, align 8, !tbaa !41
  %49 = getelementptr inbounds nuw i8, ptr %0, i64 56
  %50 = load ptr, ptr %49, align 8, !tbaa !43
  %.not.i.i.i.i.i1 = icmp eq ptr %50, null
  br i1 %.not.i.i.i.i.i1, label %_ZN5arrow7compute8internal12_GLOBAL__N_19SelectionINS2_16FSLSelectionImplENS_17FixedSizeListTypeEED2Ev.exit, label %51

51:                                               ; preds = %_ZN5arrow14NumericBuilderINS_9Int64TypeEED2Ev.exit
  %52 = getelementptr inbounds nuw i8, ptr %50, i64 8
  %53 = load atomic i64, ptr %52 acquire, align 8
  %54 = icmp eq i64 %53, 4294967297
  %55 = trunc i64 %53 to i32
  br i1 %54, label %56, label %64

56:                                               ; preds = %51
  store i32 0, ptr %52, align 8, !tbaa !38
  %57 = getelementptr inbounds nuw i8, ptr %50, i64 12
  store i32 0, ptr %57, align 4, !tbaa !40
  %58 = load ptr, ptr %50, align 8, !tbaa !41
  %59 = getelementptr inbounds nuw i8, ptr %58, i64 16
  %60 = load ptr, ptr %59, align 8
  tail call void %60(ptr noundef nonnull align 8 dereferenceable(16) %50) #25
  %61 = load ptr, ptr %50, align 8, !tbaa !41
  %62 = getelementptr inbounds nuw i8, ptr %61, i64 24
  %63 = load ptr, ptr %62, align 8
  tail call void %63(ptr noundef nonnull align 8 dereferenceable(16) %50) #25
  br label %_ZN5arrow7compute8internal12_GLOBAL__N_19SelectionINS2_16FSLSelectionImplENS_17FixedSizeListTypeEED2Ev.exit

64:                                               ; preds = %51
  %65 = load i8, ptr @__libc_single_threaded, align 1, !tbaa !74
  %.not.i.i.i.i.i.i2 = icmp eq i8 %65, 0
  br i1 %.not.i.i.i.i.i.i2, label %68, label %66

66:                                               ; preds = %64
  %67 = add nsw i32 %55, -1
  store i32 %67, ptr %52, align 4, !tbaa !75
  br label %_ZN9__gnu_cxx27__exchange_and_add_dispatchEPii.exit.i.i.i.i.i.i3

68:                                               ; preds = %64
  %69 = atomicrmw volatile add ptr %52, i32 -1 acq_rel, align 4
  br label %_ZN9__gnu_cxx27__exchange_and_add_dispatchEPii.exit.i.i.i.i.i.i3

_ZN9__gnu_cxx27__exchange_and_add_dispatchEPii.exit.i.i.i.i.i.i3: ; preds = %68, %66
  %.0.i.i.i.i.i.i.i4 = phi i32 [ %55, %66 ], [ %69, %68 ]
  %70 = icmp eq i32 %.0.i.i.i.i.i.i.i4, 1
  br i1 %70, label %71, label %_ZN5arrow7compute8internal12_GLOBAL__N_19SelectionINS2_16FSLSelectionImplENS_17FixedSizeListTypeEED2Ev.exit, !prof !76

71:                                               ; preds = %_ZN9__gnu_cxx27__exchange_and_add_dispatchEPii.exit.i.i.i.i.i.i3
  tail call void @_ZNSt16_Sp_counted_baseILN9__gnu_cxx12_Lock_policyE2EE24_M_release_last_use_coldEv(ptr noundef nonnull align 8 dereferenceable(16) %50) #25
  br label %_ZN5arrow7compute8internal12_GLOBAL__N_19SelectionINS2_16FSLSelectionImplENS_17FixedSizeListTypeEED2Ev.exit

_ZN5arrow7compute8internal12_GLOBAL__N_19SelectionINS2_16FSLSelectionImplENS_17FixedSizeListTypeEED2Ev.exit: ; preds = %_ZN5arrow14NumericBuilderINS_9Int64TypeEED2Ev.exit, %56, %_ZN9__gnu_cxx27__exchange_and_add_dispatchEPii.exit.i.i.i.i.i.i3, %71
  ret void
}